; ModuleID = '10/1892.c'
source_filename = "10/1892.c"
target datalayout = "e-m:e-p270:32:32-p271:32:32-p272:64:64-i64:64-f80:128-n8:16:32:64-S128"
target triple = "x86_64-pc-linux-gnu"

@num = dso_local global [25 x i32] zeroinitializer, align 16
@.str = private unnamed_addr constant [3 x i8] c"%d\00", align 1
@a = common dso_local global [25 x i32] zeroinitializer, align 16
@.str.1 = private unnamed_addr constant [4 x i8] c"%d\0A\00", align 1

; Function Attrs: noinline nounwind uwtable
define dso_local i32 @main() #0 {
  %1 = alloca i32, align 4
  %2 = alloca i32, align 4
  %3 = alloca i32, align 4
  %4 = alloca i32, align 4
  store i32 0, i32* %1, align 4
  store i32 0, i32* %4, align 4
  %5 = call i32 (i8*, ...) @__isoc99_scanf(i8* getelementptr inbounds ([3 x i8], [3 x i8]* @.str, i64 0, i64 0), i32* %2)
  store i32 0, i32* %3, align 4
  br label %6

6:                                                ; preds = %15, %0
  %7 = load i32, i32* %3, align 4
  %8 = load i32, i32* %2, align 4
  %9 = icmp slt i32 %7, %8
  br i1 %9, label %10, label %18

10:                                               ; preds = %6
  %11 = load i32, i32* %3, align 4
  %12 = sext i32 %11 to i64
  %13 = getelementptr inbounds [25 x i32], [25 x i32]* @a, i64 0, i64 %12
  %14 = call i32 (i8*, ...) @__isoc99_scanf(i8* getelementptr inbounds ([3 x i8], [3 x i8]* @.str, i64 0, i64 0), i32* %13)
  br label %15

15:                                               ; preds = %10
  %16 = load i32, i32* %3, align 4
  %17 = add nsw i32 %16, 1
  store i32 %17, i32* %3, align 4
  br label %6

18:                                               ; preds = %6
  %19 = load i32, i32* %3, align 4
  %20 = add nsw i32 %19, -1
  store i32 %20, i32* %3, align 4
  br label %21

21:                                               ; preds = %32, %18
  %22 = load i32, i32* %3, align 4
  %23 = icmp sge i32 %22, 0
  br i1 %23, label %24, label %35

24:                                               ; preds = %21
  %25 = load i32, i32* %3, align 4
  %26 = load i32, i32* %2, align 4
  %27 = call i32 @search(i32 %25, i32 %26)
  %28 = add nsw i32 1, %27
  %29 = load i32, i32* %3, align 4
  %30 = sext i32 %29 to i64
  %31 = getelementptr inbounds [25 x i32], [25 x i32]* @num, i64 0, i64 %30
  store i32 %28, i32* %31, align 4
  br label %32

32:                                               ; preds = %24
  %33 = load i32, i32* %3, align 4
  %34 = add nsw i32 %33, -1
  store i32 %34, i32* %3, align 4
  br label %21

35:                                               ; preds = %21
  store i32 0, i32* %3, align 4
  br label %36

36:                                               ; preds = %53, %35
  %37 = load i32, i32* %3, align 4
  %38 = load i32, i32* %2, align 4
  %39 = icmp slt i32 %37, %38
  br i1 %39, label %40, label %56

40:                                               ; preds = %36
  %41 = load i32, i32* %3, align 4
  %42 = sext i32 %41 to i64
  %43 = getelementptr inbounds [25 x i32], [25 x i32]* @num, i64 0, i64 %42
  %44 = load i32, i32* %43, align 4
  %45 = load i32, i32* %4, align 4
  %46 = icmp sgt i32 %44, %45
  br i1 %46, label %47, label %52

47:                                               ; preds = %40
  %48 = load i32, i32* %3, align 4
  %49 = sext i32 %48 to i64
  %50 = getelementptr inbounds [25 x i32], [25 x i32]* @num, i64 0, i64 %49
  %51 = load i32, i32* %50, align 4
  store i32 %51, i32* %4, align 4
  br label %52

52:                                               ; preds = %47, %40
  br label %53

53:                                               ; preds = %52
  %54 = load i32, i32* %3, align 4
  %55 = add nsw i32 %54, 1
  store i32 %55, i32* %3, align 4
  br label %36

56:                                               ; preds = %36
  %57 = load i32, i32* %4, align 4
  %58 = call i32 (i8*, ...) @printf(i8* getelementptr inbounds ([4 x i8], [4 x i8]* @.str.1, i64 0, i64 0), i32 %57)
  ret i32 0
}

declare dso_local i32 @__isoc99_scanf(i8*, ...) #1

; Function Attrs: noinline nounwind uwtable
define dso_local i32 @search(i32 %0, i32 %1) #0 {
  %3 = alloca i32, align 4
  %4 = alloca i32, align 4
  %5 = alloca i32, align 4
  %6 = alloca i32, align 4
  store i32 %0, i32* %3, align 4
  store i32 %1, i32* %4, align 4
  store i32 0, i32* %6, align 4
  %7 = load i32, i32* %3, align 4
  %8 = add nsw i32 %7, 1
  store i32 %8, i32* %5, align 4
  br label %9

9:                                                ; preds = %37, %2
  %10 = load i32, i32* %5, align 4
  %11 = load i32, i32* %4, align 4
  %12 = icmp slt i32 %10, %11
  br i1 %12, label %13, label %40

13:                                               ; preds = %9
  %14 = load i32, i32* %5, align 4
  %15 = sext i32 %14 to i64
  %16 = getelementptr inbounds [25 x i32], [25 x i32]* @a, i64 0, i64 %15
  %17 = load i32, i32* %16, align 4
  %18 = load i32, i32* %3, align 4
  %19 = sext i32 %18 to i64
  %20 = getelementptr inbounds [25 x i32], [25 x i32]* @a, i64 0, i64 %19
  %21 = load i32, i32* %20, align 4
  %22 = icmp sle i32 %17, %21
  br i1 %22, label %23, label %36

23:                                               ; preds = %13
  %24 = load i32, i32* %6, align 4
  %25 = load i32, i32* %5, align 4
  %26 = sext i32 %25 to i64
  %27 = getelementptr inbounds [25 x i32], [25 x i32]* @num, i64 0, i64 %26
  %28 = load i32, i32* %27, align 4
  %29 = icmp slt i32 %24, %28
  br i1 %29, label %30, label %35

30:                                               ; preds = %23
  %31 = load i32, i32* %5, align 4
  %32 = sext i32 %31 to i64
  %33 = getelementptr inbounds [25 x i32], [25 x i32]* @num, i64 0, i64 %32
  %34 = load i32, i32* %33, align 4
  store i32 %34, i32* %6, align 4
  br label %35

35:                                               ; preds = %30, %23
  br label %36

36:                                               ; preds = %35, %13
  br label %37

37:                                               ; preds = %36
  %38 = load i32, i32* %5, align 4
  %39 = add nsw i32 %38, 1
  store i32 %39, i32* %5, align 4
  br label %9

40:                                               ; preds = %9
  %41 = load i32, i32* %6, align 4
  ret i32 %41
}

declare dso_local i32 @printf(i8*, ...) #1


!llvm.module.flags = !{!0}
!llvm.ident = !{!1}

!0 = !{i32 1, !"wchar_size", i32 4}
!1 = !{!"clang version 10.0.0-4ubuntu1 "}
